; ModuleID = '60/92.c'
source_filename = "60/92.c"
target datalayout = "e-m:e-p270:32:32-p271:32:32-p272:64:64-i64:64-f80:128-n8:16:32:64-S128"
target triple = "x86_64-pc-linux-gnu"

@.str = private unnamed_addr constant [3 x i8] c"%d\00", align 1
@.str.1 = private unnamed_addr constant [7 x i8] c"empty\0A\00", align 1
@.str.2 = private unnamed_addr constant [7 x i8] c"%d %d\0A\00", align 1

; Function Attrs: noinline nounwind uwtable
define dso_local void @main() #0 {
  %1 = alloca i32, align 4
  %2 = alloca i32, align 4
  %3 = alloca i32, align 4
  %4 = alloca i32, align 4
  %5 = alloca i32, align 4
  %6 = alloca i32, align 4
  %7 = call i32 (i8*, ...) @__isoc99_scanf(i8* getelementptr inbounds ([3 x i8], [3 x i8]* @.str, i64 0, i64 0), i32* %3)
  %8 = load i32, i32* %3, align 4
  %9 = icmp sle i32 %8, 4
  br i1 %9, label %10, label %12

10:                                               ; preds = %0
  %11 = call i32 (i8*, ...) @printf(i8* getelementptr inbounds ([7 x i8], [7 x i8]* @.str.1, i64 0, i64 0))
  br label %71

12:                                               ; preds = %0
  store i32 3, i32* %1, align 4
  br label %13

13:                                               ; preds = %67, %12
  %14 = load i32, i32* %1, align 4
  %15 = load i32, i32* %3, align 4
  %16 = sub nsw i32 %15, 2
  %17 = icmp sle i32 %14, %16
  br i1 %17, label %18, label %70

18:                                               ; preds = %13
  %19 = load i32, i32* %1, align 4
  store i32 %19, i32* %5, align 4
  store i32 2, i32* %2, align 4
  br label %20

20:                                               ; preds = %32, %18
  %21 = load i32, i32* %2, align 4
  %22 = load i32, i32* %5, align 4
  %23 = icmp sle i32 %21, %22
  br i1 %23, label %24, label %35

24:                                               ; preds = %20
  %25 = load i32, i32* %5, align 4
  %26 = load i32, i32* %2, align 4
  %27 = srem i32 %25, %26
  store i32 %27, i32* %4, align 4
  %28 = load i32, i32* %4, align 4
  %29 = icmp eq i32 %28, 0
  br i1 %29, label %30, label %31

30:                                               ; preds = %24
  br label %35

31:                                               ; preds = %24
  br label %32

32:                                               ; preds = %31
  %33 = load i32, i32* %2, align 4
  %34 = add nsw i32 %33, 1
  store i32 %34, i32* %2, align 4
  br label %20

35:                                               ; preds = %30, %20
  %36 = load i32, i32* %2, align 4
  %37 = load i32, i32* %5, align 4
  %38 = icmp eq i32 %36, %37
  br i1 %38, label %39, label %66

39:                                               ; preds = %35
  %40 = load i32, i32* %5, align 4
  %41 = add nsw i32 %40, 2
  store i32 %41, i32* %6, align 4
  store i32 2, i32* %2, align 4
  br label %42

42:                                               ; preds = %54, %39
  %43 = load i32, i32* %2, align 4
  %44 = load i32, i32* %6, align 4
  %45 = icmp sle i32 %43, %44
  br i1 %45, label %46, label %57

46:                                               ; preds = %42
  %47 = load i32, i32* %6, align 4
  %48 = load i32, i32* %2, align 4
  %49 = srem i32 %47, %48
  store i32 %49, i32* %4, align 4
  %50 = load i32, i32* %4, align 4
  %51 = icmp eq i32 %50, 0
  br i1 %51, label %52, label %53

52:                                               ; preds = %46
  br label %57

53:                                               ; preds = %46
  br label %54

54:                                               ; preds = %53
  %55 = load i32, i32* %2, align 4
  %56 = add nsw i32 %55, 1
  store i32 %56, i32* %2, align 4
  br label %42

57:                                               ; preds = %52, %42
  %58 = load i32, i32* %2, align 4
  %59 = load i32, i32* %6, align 4
  %60 = icmp eq i32 %58, %59
  br i1 %60, label %61, label %65

61:                                               ; preds = %57
  %62 = load i32, i32* %5, align 4
  %63 = load i32, i32* %6, align 4
  %64 = call i32 (i8*, ...) @printf(i8* getelementptr inbounds ([7 x i8], [7 x i8]* @.str.2, i64 0, i64 0), i32 %62, i32 %63)
  br label %65

65:                                               ; preds = %61, %57
  br label %66

66:                                               ; preds = %65, %35
  br label %67

67:                                               ; preds = %66
  %68 = load i32, i32* %1, align 4
  %69 = add nsw i32 %68, 1
  store i32 %69, i32* %1, align 4
  br label %13

70:                                               ; preds = %13
  br label %71

71:                                               ; preds = %70, %10
  ret void
}

declare dso_local i32 @__isoc99_scanf(i8*, ...) #1

declare dso_local i32 @printf(i8*, ...) #1


!llvm.module.flags = !{!0}
!llvm.ident = !{!1}

!0 = !{i32 1, !"wchar_size", i32 4}
!1 = !{!"clang version 10.0.0-4ubuntu1 "}
